; Function Attrs: nounwind uwtable
define noundef ptr @l___private_Lean_Compiler_IR_FreeVars_0__Lean_IR_MaxIndex_collect(ptr noundef %0, ptr noundef %1) local_unnamed_addr #0 {
  %3 = ptrtoint ptr %1 to i64
  %4 = and i64 %3, 1
  %.not = icmp eq i64 %4, 0
  br i1 %.not, label %lean_nat_lt.exit.thread12, label %5, !prof !11

5:                                                ; preds = %2
  %6 = ptrtoint ptr %0 to i64
  %7 = and i64 %6, 1
  %.not14 = icmp eq i64 %7, 0
  br i1 %.not14, label %lean_nat_lt.exit, label %lean_nat_lt.exit.thread, !prof !11

lean_nat_lt.exit:                                 ; preds = %5
  %8 = tail call zeroext i1 @lean_nat_big_lt(ptr noundef %1, ptr noundef %0) #3
  br i1 %8, label %.thread, label %lean_inc.exit7

lean_nat_lt.exit.thread12:                        ; preds = %2
  %9 = tail call zeroext i1 @lean_nat_big_lt(ptr noundef %1, ptr noundef %0) #3
  br i1 %9, label %16, label %10

lean_nat_lt.exit.thread:                          ; preds = %5
  %.not15 = icmp ult ptr %1, %0
  %spec.select = select i1 %.not15, ptr %0, ptr %1
  br label %lean_inc.exit7

10:                                               ; preds = %lean_nat_lt.exit.thread12
  %.val.i = load i32, ptr %1, align 4, !tbaa !4
  %11 = icmp sgt i32 %.val.i, 0
  br i1 %11, label %12, label %14, !prof !9

12:                                               ; preds = %10
  %13 = add nuw i32 %.val.i, 1
  store i32 %13, ptr %1, align 4, !tbaa !4
  br label %lean_inc.exit7

14:                                               ; preds = %10
  %.not.i = icmp eq i32 %.val.i, 0
  br i1 %.not.i, label %lean_inc.exit7, label %15

15:                                               ; preds = %14
  tail call void @lean_inc_ref_cold(ptr noundef nonnull %1) #3
  br label %lean_inc.exit7

16:                                               ; preds = %lean_nat_lt.exit.thread12
  %.pre = ptrtoint ptr %0 to i64
  %.pre17 = and i64 %.pre, 1
  %17 = icmp eq i64 %.pre17, 0
  br i1 %17, label %.thread, label %lean_inc.exit7

.thread:                                          ; preds = %lean_nat_lt.exit, %16
  %.val.i8 = load i32, ptr %0, align 4, !tbaa !4
  %18 = icmp sgt i32 %.val.i8, 0
  br i1 %18, label %19, label %21, !prof !9

19:                                               ; preds = %.thread
  %20 = add nuw i32 %.val.i8, 1
  store i32 %20, ptr %0, align 4, !tbaa !4
  br label %lean_inc.exit7

21:                                               ; preds = %.thread
  %.not.i9 = icmp eq i32 %.val.i8, 0
  br i1 %.not.i9, label %lean_inc.exit7, label %22

22:                                               ; preds = %21
  tail call void @lean_inc_ref_cold(ptr noundef nonnull %0) #3
  br label %lean_inc.exit7

lean_inc.exit7:                                   ; preds = %lean_nat_lt.exit.thread, %lean_nat_lt.exit, %16, %19, %21, %22, %12, %14, %15
  %.0 = phi ptr [ %1, %15 ], [ %1, %14 ], [ %1, %12 ], [ %0, %22 ], [ %0, %21 ], [ %0, %19 ], [ %0, %16 ], [ %1, %lean_nat_lt.exit ], [ %spec.select, %lean_nat_lt.exit.thread ]
  ret ptr %.0
}